target datalayout = "e-m:e-p270:32:32-p271:32:32-p272:64:64-i64:64-i128:128-f80:128-n8:16:32:64-S128"
target triple = "x86_64-pc-linux-gnu"

%"class.std::__cxx11::basic_string" = type { %"struct.std::__cxx11::basic_string<char>::_Alloc_hider", i64, %union.anon }
%"struct.std::__cxx11::basic_string<char>::_Alloc_hider" = type { ptr }
%union.anon = type { i64, [8 x i8] }
%"class.Assimp::FBX::Node" = type { %"class.std::__cxx11::basic_string", %"class.std::vector", %"class.std::vector.3", i8, i64, i64, i64 }
%"class.std::vector" = type { %"struct.std::_Vector_base" }
%"struct.std::_Vector_base" = type { %"struct.std::_Vector_base<Assimp::FBX::FBXExportProperty, std::allocator<Assimp::FBX::FBXExportProperty>>::_Vector_impl" }
%"struct.std::_Vector_base<Assimp::FBX::FBXExportProperty, std::allocator<Assimp::FBX::FBXExportProperty>>::_Vector_impl" = type { %"struct.std::_Vector_base<Assimp::FBX::FBXExportProperty, std::allocator<Assimp::FBX::FBXExportProperty>>::_Vector_impl_data" }
%"struct.std::_Vector_base<Assimp::FBX::FBXExportProperty, std::allocator<Assimp::FBX::FBXExportProperty>>::_Vector_impl_data" = type { ptr, ptr, ptr }
%"class.std::vector.3" = type { %"struct.std::_Vector_base.4" }
%"struct.std::_Vector_base.4" = type { %"struct.std::_Vector_base<Assimp::FBX::Node, std::allocator<Assimp::FBX::Node>>::_Vector_impl" }
%"struct.std::_Vector_base<Assimp::FBX::Node, std::allocator<Assimp::FBX::Node>>::_Vector_impl" = type { %"struct.std::_Vector_base<Assimp::FBX::Node, std::allocator<Assimp::FBX::Node>>::_Vector_impl_data" }
%"struct.std::_Vector_base<Assimp::FBX::Node, std::allocator<Assimp::FBX::Node>>::_Vector_impl_data" = type { ptr, ptr, ptr }

; Function Attrs: mustprogress uwtable
define hidden void @_ZN6Assimp3FBX4Node13EndPropertiesERNS_12StreamWriterILb0ELb0EEEbim(ptr noundef nonnull align 8 dereferenceable(112) %0, ptr noundef nonnull align 8 dereferenceable(56) %1, i1 noundef zeroext %2, i32 noundef %3, i64 noundef %4) #3 align 2 {
  %6 = alloca ptr, align 8
  %7 = alloca ptr, align 8
  %8 = alloca i8, align 1
  %9 = alloca i32, align 4
  %10 = alloca i64, align 8
  store ptr %0, ptr %6, align 8
  store ptr %1, ptr %7, align 8
  %11 = zext i1 %2 to i8
  store i8 %11, ptr %8, align 1
  store i32 %3, ptr %9, align 4
  store i64 %4, ptr %10, align 8
  %12 = load ptr, ptr %6, align 8
  %13 = load i8, ptr %8, align 1, !range !3, !noundef !4
  %14 = trunc i8 %13 to i1
  br i1 %14, label %15, label %18

15:                                               ; preds = %5
  %16 = load ptr, ptr %7, align 8
  %17 = load i64, ptr %10, align 8
  call void @_ZN6Assimp3FBX4Node19EndPropertiesBinaryERNS_12StreamWriterILb0ELb0EEEm(ptr noundef nonnull align 8 dereferenceable(112) %12, ptr noundef nonnull align 8 dereferenceable(56) %16, i64 noundef %17)
  br label %19

18:                                               ; preds = %5
  br label %19

19:                                               ; preds = %18, %15
  ret void
}

; Function Attrs: mustprogress nounwind uwtable
define linkonce_odr hidden noundef i64 @_ZNKSt6vectorIN6Assimp3FBX17FBXExportPropertyESaIS2_EE4sizeEv(ptr noundef nonnull align 8 dereferenceable(24) %0) #2 comdat align 2 {
  %2 = alloca ptr, align 8
  store ptr %0, ptr %2, align 8
  %3 = load ptr, ptr %2, align 8
  %4 = getelementptr inbounds nuw %"struct.std::_Vector_base", ptr %3, i32 0, i32 0
  %5 = getelementptr inbounds nuw %"struct.std::_Vector_base<Assimp::FBX::FBXExportProperty, std::allocator<Assimp::FBX::FBXExportProperty>>::_Vector_impl_data", ptr %4, i32 0, i32 1
  %6 = load ptr, ptr %5, align 8
  %7 = getelementptr inbounds nuw %"struct.std::_Vector_base", ptr %3, i32 0, i32 0
  %8 = getelementptr inbounds nuw %"struct.std::_Vector_base<Assimp::FBX::FBXExportProperty, std::allocator<Assimp::FBX::FBXExportProperty>>::_Vector_impl_data", ptr %7, i32 0, i32 0
  %9 = load ptr, ptr %8, align 8
  %10 = ptrtoint ptr %6 to i64
  %11 = ptrtoint ptr %9 to i64
  %12 = sub i64 %10, %11
  %13 = sdiv exact i64 %12, 32
  ret i64 %13
}

; Function Attrs: mustprogress uwtable
define hidden void @_ZN6Assimp3FBX4Node13EndPropertiesERNS_12StreamWriterILb0ELb0EEEbi(ptr noundef nonnull align 8 dereferenceable(112) %0, ptr noundef nonnull align 8 dereferenceable(56) %1, i1 noundef zeroext %2, i32 noundef %3) #3 align 2 {
  %5 = alloca ptr, align 8
  %6 = alloca ptr, align 8
  %7 = alloca i8, align 1
  %8 = alloca i32, align 4
  store ptr %0, ptr %5, align 8
  store ptr %1, ptr %6, align 8
  %9 = zext i1 %2 to i8
  store i8 %9, ptr %7, align 1
  store i32 %3, ptr %8, align 4
  %10 = load ptr, ptr %5, align 8
  %11 = load ptr, ptr %6, align 8
  %12 = load i8, ptr %7, align 1, !range !3, !noundef !4
  %13 = trunc i8 %12 to i1
  %14 = load i32, ptr %8, align 4
  %15 = getelementptr inbounds nuw %"class.Assimp::FBX::Node", ptr %10, i32 0, i32 1
  %16 = call noundef i64 @_ZNKSt6vectorIN6Assimp3FBX17FBXExportPropertyESaIS2_EE4sizeEv(ptr noundef nonnull align 8 dereferenceable(24) %15) #4
  call void @_ZN6Assimp3FBX4Node13EndPropertiesERNS_12StreamWriterILb0ELb0EEEbim(ptr noundef nonnull align 8 dereferenceable(112) %10, ptr noundef nonnull align 8 dereferenceable(56) %11, i1 noundef zeroext %13, i32 noundef %14, i64 noundef %16)
  ret void
}