; Function Attrs: mustprogress uwtable
define hidden void @_ZN6Assimp3FBX4Node13EndPropertiesERNS_12StreamWriterILb0ELb0EEEbi(ptr noundef nonnull readonly align 8 captures(none) dereferenceable(112) %0, ptr noundef nonnull align 8 dereferenceable(56) %1, i1 noundef zeroext %2, i32 noundef %3) local_unnamed_addr #3 align 2 {
  br i1 %2, label %5, label %_ZN6Assimp3FBX4Node13EndPropertiesERNS_12StreamWriterILb0ELb0EEEbim.exit

5:                                                ; preds = %4
  %6 = getelementptr inbounds nuw i8, ptr %0, i64 40
  %7 = load ptr, ptr %6, align 8
  %8 = ptrtoint ptr %7 to i64
  %9 = getelementptr inbounds nuw i8, ptr %0, i64 32
  %10 = load ptr, ptr %9, align 8
  %11 = ptrtoint ptr %10 to i64
  %12 = sub i64 %8, %11
  %13 = ashr exact i64 %12, 5
  tail call void @_ZN6Assimp3FBX4Node19EndPropertiesBinaryERNS_12StreamWriterILb0ELb0EEEm(ptr noundef nonnull readonly align 8 dereferenceable(112) %0, ptr noundef nonnull align 8 dereferenceable(56) %1, i64 noundef %13)
  br label %_ZN6Assimp3FBX4Node13EndPropertiesERNS_12StreamWriterILb0ELb0EEEbim.exit

_ZN6Assimp3FBX4Node13EndPropertiesERNS_12StreamWriterILb0ELb0EEEbim.exit: ; preds = %4, %5
  ret void
}